target datalayout = "e-m:e-p270:32:32-p271:32:32-p272:64:64-i64:64-i128:128-f80:128-n8:16:32:64-S128"
target triple = "x86_64-pc-linux-gnu"

%struct.jit_State = type { %struct.GCtrace, ptr, ptr, ptr, ptr, ptr, ptr, i32, i32, i32, i8, i8, %struct.IRType1, i8, %struct.FoldState, ptr, i32, i32, i32, i32, i32, i32, i32, [1 x i32], [5 x %union.TValue], [3 x %union.TValue], ptr, i32, i32, i32, i32, ptr, ptr, i32, i32, i8, ptr, i32, i32, i16, [101 x i16], [258 x i32], [15 x i32], [16 x ptr], [64 x %struct.HotPenalty], i32, [16 x %struct.BPropEntry], i32, %struct.ScEvEntry, ptr, i32, i32, i32, ptr, i32, i32, ptr, ptr, ptr, i64, i64, %union.TValue, ptr, i32, i32 }
%struct.GCtrace = type { %struct.GCRef, i8, i8, i16, i32, i32, %struct.GCRef, ptr, i32, i32, ptr, ptr, %struct.GCRef, %struct.MRef, i32, i32, ptr, i32, i16, i16, i16, i16, i16, i16, i16, i8, i8, i8, i8 }
%struct.GCRef = type { i64 }
%struct.MRef = type { i64 }
%struct.IRType1 = type { i8 }
%struct.FoldState = type { %union.IRIns, [2 x %union.IRIns], [2 x %union.IRIns] }
%union.IRIns = type { %struct.GCRef }
%struct.HotPenalty = type { %struct.MRef, i16, i16 }
%struct.BPropEntry = type { i16, i16, i32 }
%struct.ScEvEntry = type { %struct.MRef, i16, i16, i16, i16, %struct.IRType1, i8 }
%union.TValue = type { i64 }
%struct.anon = type { i16, i16, i16, i16 }
%struct.CRecMemList = type { i32, i32, i32, i32 }

; Function Attrs: nounwind uwtable
define internal void @crec_fill_emit(ptr noundef %0, ptr noundef %1, i32 noundef %2, i32 noundef %3, i32 noundef %4) #0 {
  %6 = alloca ptr, align 8
  %7 = alloca ptr, align 8
  %8 = alloca i32, align 4
  %9 = alloca i32, align 4
  %10 = alloca i32, align 4
  %11 = alloca i32, align 4
  %12 = alloca i32, align 4
  %13 = alloca i32, align 4
  store ptr %0, ptr %6, align 8, !tbaa !4
  store ptr %1, ptr %7, align 8, !tbaa !138
  store i32 %2, ptr %8, align 4, !tbaa !31
  store i32 %3, ptr %9, align 4, !tbaa !31
  store i32 %4, ptr %10, align 4, !tbaa !31
  call void @llvm.lifetime.start.p0(i64 4, ptr %11) #7
  store i32 0, ptr %11, align 4, !tbaa !31
  br label %14

14:                                               ; preds = %50, %5
  %15 = load i32, ptr %11, align 4, !tbaa !31
  %16 = load i32, ptr %8, align 4, !tbaa !31
  %17 = icmp ult i32 %15, %16
  br i1 %17, label %18, label %53

18:                                               ; preds = %14
  call void @llvm.lifetime.start.p0(i64 4, ptr %12) #7
  %19 = load ptr, ptr %6, align 8, !tbaa !4
  %20 = load ptr, ptr %7, align 8, !tbaa !138
  %21 = load i32, ptr %11, align 4, !tbaa !31
  %22 = zext i32 %21 to i64
  %23 = getelementptr inbounds nuw %struct.CRecMemList, ptr %20, i64 %22
  %24 = getelementptr inbounds nuw %struct.CRecMemList, ptr %23, i32 0, i32 0
  %25 = load i32, ptr %24, align 4, !tbaa !141
  %26 = zext i32 %25 to i64
  %27 = call i32 @lj_ir_kint64(ptr noundef %19, i64 noundef %26)
  store i32 %27, ptr %12, align 4, !tbaa !31
  call void @llvm.lifetime.start.p0(i64 4, ptr %13) #7
  %28 = load ptr, ptr %6, align 8, !tbaa !4
  %29 = load i32, ptr %9, align 4, !tbaa !31
  %30 = trunc i32 %29 to i16
  %31 = load i32, ptr %12, align 4, !tbaa !31
  %32 = trunc i32 %31 to i16
  call void @lj_ir_set_(ptr noundef %28, i16 noundef zeroext 10505, i16 noundef zeroext %30, i16 noundef zeroext %32)
  %33 = load ptr, ptr %6, align 8, !tbaa !4
  %34 = call i32 @lj_opt_fold(ptr noundef %33)
  store i32 %34, ptr %13, align 4, !tbaa !31
  %35 = load ptr, ptr %6, align 8, !tbaa !4
  %36 = load ptr, ptr %7, align 8, !tbaa !138
  %37 = load i32, ptr %11, align 4, !tbaa !31
  %38 = zext i32 %37 to i64
  %39 = getelementptr inbounds nuw %struct.CRecMemList, ptr %36, i64 %38
  %40 = getelementptr inbounds nuw %struct.CRecMemList, ptr %39, i32 0, i32 1
  %41 = load i32, ptr %40, align 4, !tbaa !122
  %42 = or i32 19968, %41
  %43 = trunc i32 %42 to i16
  %44 = load i32, ptr %13, align 4, !tbaa !31
  %45 = trunc i32 %44 to i16
  %46 = load i32, ptr %10, align 4, !tbaa !31
  %47 = trunc i32 %46 to i16
  call void @lj_ir_set_(ptr noundef %35, i16 noundef zeroext %43, i16 noundef zeroext %45, i16 noundef zeroext %47)
  %48 = load ptr, ptr %6, align 8, !tbaa !4
  %49 = call i32 @lj_opt_fold(ptr noundef %48)
  call void @llvm.lifetime.end.p0(i64 4, ptr %13) #7
  call void @llvm.lifetime.end.p0(i64 4, ptr %12) #7
  br label %50

50:                                               ; preds = %18
  %51 = load i32, ptr %11, align 4, !tbaa !31
  %52 = add i32 %51, 1
  store i32 %52, ptr %11, align 4, !tbaa !31
  br label %14, !llvm.loop !150

53:                                               ; preds = %14
  call void @llvm.lifetime.end.p0(i64 4, ptr %11) #7
  ret void
}

; Function Attrs: alwaysinline nounwind uwtable
define internal void @lj_ir_set_(ptr noundef %0, i16 noundef zeroext %1, i16 noundef zeroext %2, i16 noundef zeroext %3) #2 {
  %5 = alloca ptr, align 8
  %6 = alloca i16, align 2
  %7 = alloca i16, align 2
  %8 = alloca i16, align 2
  store ptr %0, ptr %5, align 8, !tbaa !4
  store i16 %1, ptr %6, align 2, !tbaa !70
  store i16 %2, ptr %7, align 2, !tbaa !70
  store i16 %3, ptr %8, align 2, !tbaa !70
  %9 = load i16, ptr %6, align 2, !tbaa !70
  %10 = load ptr, ptr %5, align 8, !tbaa !4
  %11 = getelementptr inbounds nuw %struct.jit_State, ptr %10, i32 0, i32 14
  %12 = getelementptr inbounds nuw %struct.FoldState, ptr %11, i32 0, i32 0
  %13 = getelementptr inbounds nuw %struct.anon, ptr %12, i32 0, i32 2
  store i16 %9, ptr %13, align 4, !tbaa !58
  %14 = load i16, ptr %7, align 2, !tbaa !70
  %15 = load ptr, ptr %5, align 8, !tbaa !4
  %16 = getelementptr inbounds nuw %struct.jit_State, ptr %15, i32 0, i32 14
  %17 = getelementptr inbounds nuw %struct.FoldState, ptr %16, i32 0, i32 0
  %18 = getelementptr inbounds nuw %struct.anon, ptr %17, i32 0, i32 0
  store i16 %14, ptr %18, align 8, !tbaa !58
  %19 = load i16, ptr %8, align 2, !tbaa !70
  %20 = load ptr, ptr %5, align 8, !tbaa !4
  %21 = getelementptr inbounds nuw %struct.jit_State, ptr %20, i32 0, i32 14
  %22 = getelementptr inbounds nuw %struct.FoldState, ptr %21, i32 0, i32 0
  %23 = getelementptr inbounds nuw %struct.anon, ptr %22, i32 0, i32 1
  store i16 %19, ptr %23, align 2, !tbaa !58
  ret void
}

; Function Attrs: nounwind uwtable
define internal i32 @crec_fill_unroll(ptr noundef %0, i32 noundef %1, i32 noundef %2) #0 {
  %4 = alloca i32, align 4
  %5 = alloca ptr, align 8
  %6 = alloca i32, align 4
  %7 = alloca i32, align 4
  %8 = alloca i32, align 4
  %9 = alloca i32, align 4
  %10 = alloca i32, align 4
  %11 = alloca i32, align 4
  store ptr %0, ptr %5, align 8, !tbaa !138
  store i32 %1, ptr %6, align 4, !tbaa !31
  store i32 %2, ptr %7, align 4, !tbaa !31
  call void @llvm.lifetime.start.p0(i64 4, ptr %8) #7
  store i32 0, ptr %8, align 4, !tbaa !31
  call void @llvm.lifetime.start.p0(i64 4, ptr %9) #7
  store i32 0, ptr %9, align 4, !tbaa !31
  call void @llvm.lifetime.start.p0(i64 4, ptr %10) #7
  %12 = load i32, ptr %7, align 4, !tbaa !31
  %13 = call i32 @llvm.ctlz.i32(i32 %12, i1 true)
  %14 = xor i32 %13, 31
  %15 = mul i32 2, %14
  %16 = add i32 16, %15
  store i32 %16, ptr %10, align 4, !tbaa !31
  br label %17

17:                                               ; preds = %51, %3
  br label %18

18:                                               ; preds = %28, %17
  %19 = load i32, ptr %8, align 4, !tbaa !31
  %20 = load i32, ptr %7, align 4, !tbaa !31
  %21 = add i32 %19, %20
  %22 = load i32, ptr %6, align 4, !tbaa !31
  %23 = icmp ule i32 %21, %22
  br i1 %23, label %24, label %46

24:                                               ; preds = %18
  %25 = load i32, ptr %9, align 4, !tbaa !31
  %26 = icmp uge i32 %25, 16
  br i1 %26, label %27, label %28

27:                                               ; preds = %24
  store i32 0, ptr %4, align 4
  store i32 1, ptr %11, align 4
  br label %57

28:                                               ; preds = %24
  %29 = load i32, ptr %8, align 4, !tbaa !31
  %30 = load ptr, ptr %5, align 8, !tbaa !138
  %31 = load i32, ptr %9, align 4, !tbaa !31
  %32 = zext i32 %31 to i64
  %33 = getelementptr inbounds nuw %struct.CRecMemList, ptr %30, i64 %32
  %34 = getelementptr inbounds nuw %struct.CRecMemList, ptr %33, i32 0, i32 0
  store i32 %29, ptr %34, align 4, !tbaa !141
  %35 = load i32, ptr %10, align 4, !tbaa !31
  %36 = load ptr, ptr %5, align 8, !tbaa !138
  %37 = load i32, ptr %9, align 4, !tbaa !31
  %38 = zext i32 %37 to i64
  %39 = getelementptr inbounds nuw %struct.CRecMemList, ptr %36, i64 %38
  %40 = getelementptr inbounds nuw %struct.CRecMemList, ptr %39, i32 0, i32 1
  store i32 %35, ptr %40, align 4, !tbaa !122
  %41 = load i32, ptr %9, align 4, !tbaa !31
  %42 = add i32 %41, 1
  store i32 %42, ptr %9, align 4, !tbaa !31
  %43 = load i32, ptr %7, align 4, !tbaa !31
  %44 = load i32, ptr %8, align 4, !tbaa !31
  %45 = add i32 %44, %43
  store i32 %45, ptr %8, align 4, !tbaa !31
  br label %18, !llvm.loop !148

46:                                               ; preds = %18
  %47 = load i32, ptr %7, align 4, !tbaa !31
  %48 = lshr i32 %47, 1
  store i32 %48, ptr %7, align 4, !tbaa !31
  %49 = load i32, ptr %10, align 4, !tbaa !31
  %50 = sub i32 %49, 2
  store i32 %50, ptr %10, align 4, !tbaa !31
  br label %51

51:                                               ; preds = %46
  %52 = load i32, ptr %8, align 4, !tbaa !31
  %53 = load i32, ptr %6, align 4, !tbaa !31
  %54 = icmp ult i32 %52, %53
  br i1 %54, label %17, label %55, !llvm.loop !149

55:                                               ; preds = %51
  %56 = load i32, ptr %9, align 4, !tbaa !31
  store i32 %56, ptr %4, align 4
  store i32 1, ptr %11, align 4
  br label %57

57:                                               ; preds = %55, %27
  call void @llvm.lifetime.end.p0(i64 4, ptr %10) #7
  call void @llvm.lifetime.end.p0(i64 4, ptr %9) #7
  call void @llvm.lifetime.end.p0(i64 4, ptr %8) #7
  %58 = load i32, ptr %4, align 4
  ret i32 %58
}

; Function Attrs: nounwind uwtable
define internal void @crec_fill(ptr noundef %0, i32 noundef %1, i32 noundef %2, i32 noundef %3, i32 noundef %4) #0 {
  %6 = alloca ptr, align 8
  %7 = alloca i32, align 4
  %8 = alloca i32, align 4
  %9 = alloca i32, align 4
  %10 = alloca i32, align 4
  %11 = alloca [16 x %struct.CRecMemList], align 16
  %12 = alloca i32, align 4
  %13 = alloca i32, align 4
  %14 = alloca i32, align 4
  store ptr %0, ptr %6, align 8, !tbaa !4
  store i32 %1, ptr %7, align 4, !tbaa !31
  store i32 %2, ptr %8, align 4, !tbaa !31
  store i32 %3, ptr %9, align 4, !tbaa !31
  store i32 %4, ptr %10, align 4, !tbaa !31
  %15 = load i32, ptr %8, align 4, !tbaa !31
  %16 = trunc i32 %15 to i16
  %17 = zext i16 %16 to i32
  %18 = icmp slt i32 %17, 32768
  br i1 %18, label %19, label %116

19:                                               ; preds = %5
  call void @llvm.lifetime.start.p0(i64 256, ptr %11) #7
  call void @llvm.lifetime.start.p0(i64 4, ptr %12) #7
  call void @llvm.lifetime.start.p0(i64 4, ptr %13) #7
  %20 = load ptr, ptr %6, align 8, !tbaa !4
  %21 = getelementptr inbounds nuw %struct.jit_State, ptr %20, i32 0, i32 0
  %22 = getelementptr inbounds nuw %struct.GCtrace, ptr %21, i32 0, i32 7
  %23 = load ptr, ptr %22, align 8, !tbaa !73
  %24 = load i32, ptr %8, align 4, !tbaa !31
  %25 = trunc i32 %24 to i16
  %26 = zext i16 %25 to i64
  %27 = getelementptr inbounds nuw %union.IRIns, ptr %23, i64 %26
  %28 = load i32, ptr %27, align 8, !tbaa !58
  store i32 %28, ptr %13, align 4, !tbaa !31
  %29 = load i32, ptr %13, align 4, !tbaa !31
  %30 = icmp eq i32 %29, 0
  br i1 %30, label %31, label %32

31:                                               ; preds = %19
  store i32 1, ptr %14, align 4
  br label %113

32:                                               ; preds = %19
  store i32 8, ptr %10, align 4, !tbaa !31
  %33 = load i32, ptr %10, align 4, !tbaa !31
  %34 = mul i32 %33, 16
  %35 = load i32, ptr %13, align 4, !tbaa !31
  %36 = icmp ult i32 %34, %35
  br i1 %36, label %37, label %38

37:                                               ; preds = %32
  store i32 2, ptr %14, align 4
  br label %113

38:                                               ; preds = %32
  %39 = getelementptr inbounds [16 x %struct.CRecMemList], ptr %11, i64 0, i64 0
  %40 = load i32, ptr %13, align 4, !tbaa !31
  %41 = load i32, ptr %10, align 4, !tbaa !31
  %42 = call i32 @crec_fill_unroll(ptr noundef %39, i32 noundef %40, i32 noundef %41)
  store i32 %42, ptr %12, align 4, !tbaa !31
  %43 = load i32, ptr %12, align 4, !tbaa !31
  %44 = icmp ne i32 %43, 0
  br i1 %44, label %46, label %45

45:                                               ; preds = %38
  store i32 2, ptr %14, align 4
  br label %113

46:                                               ; preds = %38
  %47 = load i32, ptr %9, align 4, !tbaa !31
  %48 = trunc i32 %47 to i16
  %49 = zext i16 %48 to i32
  %50 = icmp slt i32 %49, 32768
  br i1 %50, label %56, label %51

51:                                               ; preds = %46
  %52 = getelementptr inbounds [16 x %struct.CRecMemList], ptr %11, i64 0, i64 0
  %53 = getelementptr inbounds nuw %struct.CRecMemList, ptr %52, i32 0, i32 1
  %54 = load i32, ptr %53, align 4, !tbaa !122
  %55 = icmp ne i32 %54, 16
  br i1 %55, label %56, label %62

56:                                               ; preds = %51, %46
  %57 = load ptr, ptr %6, align 8, !tbaa !4
  %58 = load i32, ptr %9, align 4, !tbaa !31
  %59 = trunc i32 %58 to i16
  call void @lj_ir_set_(ptr noundef %57, i16 noundef zeroext 23315, i16 noundef zeroext %59, i16 noundef zeroext 624)
  %60 = load ptr, ptr %6, align 8, !tbaa !4
  %61 = call i32 @lj_opt_fold(ptr noundef %60)
  store i32 %61, ptr %9, align 4, !tbaa !31
  br label %62

62:                                               ; preds = %56, %51
  %63 = getelementptr inbounds [16 x %struct.CRecMemList], ptr %11, i64 0, i64 0
  %64 = getelementptr inbounds nuw %struct.CRecMemList, ptr %63, i32 0, i32 1
  %65 = load i32, ptr %64, align 4, !tbaa !122
  %66 = icmp ne i32 %65, 16
  br i1 %66, label %67, label %107

67:                                               ; preds = %62
  %68 = getelementptr inbounds [16 x %struct.CRecMemList], ptr %11, i64 0, i64 0
  %69 = getelementptr inbounds nuw %struct.CRecMemList, ptr %68, i32 0, i32 1
  %70 = load i32, ptr %69, align 4, !tbaa !122
  %71 = icmp eq i32 %70, 22
  br i1 %71, label %72, label %92

72:                                               ; preds = %67
  %73 = load i32, ptr %9, align 4, !tbaa !31
  %74 = trunc i32 %73 to i16
  %75 = zext i16 %74 to i32
  %76 = icmp slt i32 %75, 32768
  br i1 %76, label %77, label %83

77:                                               ; preds = %72
  %78 = load ptr, ptr %6, align 8, !tbaa !4
  %79 = load i32, ptr %9, align 4, !tbaa !31
  %80 = trunc i32 %79 to i16
  call void @lj_ir_set_(ptr noundef %78, i16 noundef zeroext 23318, i16 noundef zeroext %80, i16 noundef zeroext 724)
  %81 = load ptr, ptr %6, align 8, !tbaa !4
  %82 = call i32 @lj_opt_fold(ptr noundef %81)
  store i32 %82, ptr %9, align 4, !tbaa !31
  br label %83

83:                                               ; preds = %77, %72
  %84 = load ptr, ptr %6, align 8, !tbaa !4
  %85 = load i32, ptr %9, align 4, !tbaa !31
  %86 = trunc i32 %85 to i16
  %87 = load ptr, ptr %6, align 8, !tbaa !4
  %88 = call i32 @lj_ir_kint64(ptr noundef %87, i64 noundef 72340172838076673)
  %89 = trunc i32 %88 to i16
  call void @lj_ir_set_(ptr noundef %84, i16 noundef zeroext 11030, i16 noundef zeroext %86, i16 noundef zeroext %89)
  %90 = load ptr, ptr %6, align 8, !tbaa !4
  %91 = call i32 @lj_opt_fold(ptr noundef %90)
  store i32 %91, ptr %9, align 4, !tbaa !31
  br label %106

92:                                               ; preds = %67
  %93 = load ptr, ptr %6, align 8, !tbaa !4
  %94 = load i32, ptr %9, align 4, !tbaa !31
  %95 = trunc i32 %94 to i16
  %96 = load ptr, ptr %6, align 8, !tbaa !4
  %97 = getelementptr inbounds [16 x %struct.CRecMemList], ptr %11, i64 0, i64 0
  %98 = getelementptr inbounds nuw %struct.CRecMemList, ptr %97, i32 0, i32 1
  %99 = load i32, ptr %98, align 4, !tbaa !122
  %100 = icmp eq i32 %99, 18
  %101 = select i1 %100, i32 257, i32 16843009
  %102 = call i32 @lj_ir_kint(ptr noundef %96, i32 noundef %101)
  %103 = trunc i32 %102 to i16
  call void @lj_ir_set_(ptr noundef %93, i16 noundef zeroext 11027, i16 noundef zeroext %95, i16 noundef zeroext %103)
  %104 = load ptr, ptr %6, align 8, !tbaa !4
  %105 = call i32 @lj_opt_fold(ptr noundef %104)
  store i32 %105, ptr %9, align 4, !tbaa !31
  br label %106

106:                                              ; preds = %92, %83
  br label %107

107:                                              ; preds = %106, %62
  %108 = load ptr, ptr %6, align 8, !tbaa !4
  %109 = getelementptr inbounds [16 x %struct.CRecMemList], ptr %11, i64 0, i64 0
  %110 = load i32, ptr %12, align 4, !tbaa !31
  %111 = load i32, ptr %7, align 4, !tbaa !31
  %112 = load i32, ptr %9, align 4, !tbaa !31
  call void @crec_fill_emit(ptr noundef %108, ptr noundef %109, i32 noundef %110, i32 noundef %111, i32 noundef %112)
  store i32 0, ptr %14, align 4
  br label %113

113:                                              ; preds = %45, %37, %107, %31
  call void @llvm.lifetime.end.p0(i64 4, ptr %13) #7
  call void @llvm.lifetime.end.p0(i64 4, ptr %12) #7
  call void @llvm.lifetime.end.p0(i64 256, ptr %11) #7
  %114 = load i32, ptr %14, align 4
  switch i32 %114, label %128 [
    i32 0, label %115
    i32 1, label %127
    i32 2, label %117
  ]

115:                                              ; preds = %113
  br label %123

116:                                              ; preds = %5
  br label %117

117:                                              ; preds = %116, %113
  %118 = load ptr, ptr %6, align 8, !tbaa !4
  %119 = load i32, ptr %7, align 4, !tbaa !31
  %120 = load i32, ptr %9, align 4, !tbaa !31
  %121 = load i32, ptr %8, align 4, !tbaa !31
  %122 = call i32 (ptr, i32, ...) @lj_ir_call(ptr noundef %118, i32 noundef 105, i32 noundef %119, i32 noundef %120, i32 noundef %121)
  br label %123

123:                                              ; preds = %117, %115
  %124 = load ptr, ptr %6, align 8, !tbaa !4
  call void @lj_ir_set_(ptr noundef %124, i16 noundef zeroext 23040, i16 noundef zeroext 0, i16 noundef zeroext 0)
  %125 = load ptr, ptr %6, align 8, !tbaa !4
  %126 = call i32 @lj_opt_fold(ptr noundef %125)
  br label %127

127:                                              ; preds = %123, %113
  ret void

128:                                              ; preds = %113
  unreachable
}