; Function Attrs: nounwind uwtable
define internal fastcc void @crec_fill(ptr noundef %0, i32 noundef %1, i32 noundef %2, i32 noundef %3) unnamed_addr #0 {
  %5 = alloca [16 x %struct.CRecMemList], align 16
  %6 = and i32 %2, 32768
  %.not.not = icmp eq i32 %6, 0
  br i1 %.not.not, label %7, label %71

7:                                                ; preds = %4
  call void @llvm.lifetime.start.p0(i64 256, ptr nonnull %5) #8
  %8 = getelementptr inbounds nuw i8, ptr %0, i64 32
  %9 = load ptr, ptr %8, align 8, !tbaa !59
  %10 = and i32 %2, 32767
  %11 = zext nneg i32 %10 to i64
  %12 = getelementptr inbounds nuw %union.IRIns, ptr %9, i64 %11
  %13 = load i32, ptr %12, align 8, !tbaa !31
  %14 = icmp eq i32 %13, 0
  br i1 %14, label %crec_fill_emit.exit, label %15

15:                                               ; preds = %7
  %16 = icmp ugt i32 %13, 128
  br i1 %16, label %crec_fill_emit.exit.thread, label %.preheader

.preheader:                                       ; preds = %15, %._crit_edge.i
  %.022.i = phi i32 [ %25, %._crit_edge.i ], [ 8, %15 ]
  %.020.i = phi i32 [ %.121.lcssa.i, %._crit_edge.i ], [ 0, %15 ]
  %.019.i = phi i32 [ %.1.lcssa.i, %._crit_edge.i ], [ 0, %15 ]
  %.0.i = phi i32 [ %26, %._crit_edge.i ], [ 22, %15 ]
  %17 = add i32 %.020.i, %.022.i
  %.not29.i = icmp ugt i32 %17, %13
  br i1 %.not29.i, label %._crit_edge.i, label %.lr.ph.preheader.i

.lr.ph.preheader.i:                               ; preds = %.preheader
  %18 = zext i32 %.019.i to i64
  %umax.i = tail call i32 @llvm.umax.i32(i32 %.019.i, i32 16)
  %wide.trip.count.i = zext i32 %umax.i to i64
  br label %.lr.ph.i

.lr.ph.i:                                         ; preds = %20, %.lr.ph.preheader.i
  %indvars.iv.i = phi i64 [ %18, %.lr.ph.preheader.i ], [ %indvars.iv.next.i, %20 ]
  %19 = phi i32 [ %17, %.lr.ph.preheader.i ], [ %23, %20 ]
  %.12130.i = phi i32 [ %.020.i, %.lr.ph.preheader.i ], [ %19, %20 ]
  %exitcond.i = icmp eq i64 %indvars.iv.i, %wide.trip.count.i
  br i1 %exitcond.i, label %crec_fill_emit.exit.thread, label %20

20:                                               ; preds = %.lr.ph.i
  %21 = getelementptr inbounds nuw %struct.CRecMemList, ptr %5, i64 %indvars.iv.i
  store i32 %.12130.i, ptr %21, align 16, !tbaa !116
  %22 = getelementptr inbounds nuw i8, ptr %21, i64 4
  store i32 %.0.i, ptr %22, align 4, !tbaa !118
  %indvars.iv.next.i = add nuw nsw i64 %indvars.iv.i, 1
  %23 = add i32 %19, %.022.i
  %.not.i = icmp ugt i32 %23, %13
  br i1 %.not.i, label %._crit_edge.loopexit.i, label %.lr.ph.i, !llvm.loop !125

._crit_edge.loopexit.i:                           ; preds = %20
  %24 = trunc nuw i64 %indvars.iv.next.i to i32
  br label %._crit_edge.i

._crit_edge.i:                                    ; preds = %._crit_edge.loopexit.i, %.preheader
  %.121.lcssa.i = phi i32 [ %.020.i, %.preheader ], [ %19, %._crit_edge.loopexit.i ]
  %.1.lcssa.i = phi i32 [ %.019.i, %.preheader ], [ %24, %._crit_edge.loopexit.i ]
  %25 = lshr i32 %.022.i, 1
  %26 = add i32 %.0.i, -2
  %27 = icmp ult i32 %.121.lcssa.i, %13
  br i1 %27, label %.preheader, label %crec_fill_unroll.exit, !llvm.loop !126

crec_fill_unroll.exit:                            ; preds = %._crit_edge.i
  %.not = icmp eq i32 %.1.lcssa.i, 0
  br i1 %.not, label %crec_fill_emit.exit.thread, label %28

28:                                               ; preds = %crec_fill_unroll.exit
  %29 = and i32 %3, 32768
  %30 = icmp eq i32 %29, 0
  %31 = getelementptr inbounds nuw i8, ptr %5, i64 4
  %32 = load i32, ptr %31, align 4
  %33 = icmp ne i32 %32, 16
  %or.cond = select i1 %30, i1 true, i1 %33
  br i1 %or.cond, label %34, label %.thread

34:                                               ; preds = %28
  %35 = trunc i32 %3 to i16
  %36 = getelementptr inbounds nuw i8, ptr %0, i64 184
  %37 = getelementptr inbounds nuw i8, ptr %0, i64 188
  store i16 23315, ptr %37, align 4, !tbaa !31
  store i16 %35, ptr %36, align 8, !tbaa !31
  %38 = getelementptr inbounds nuw i8, ptr %0, i64 186
  store i16 624, ptr %38, align 2, !tbaa !31
  %39 = tail call i32 @lj_opt_fold(ptr noundef %0) #8
  switch i32 %32, label %47 [
    i32 16, label %.thread
    i32 22, label %40
  ]

40:                                               ; preds = %34
  %41 = and i32 %39, 32768
  %.not43.not = icmp eq i32 %41, 0
  br i1 %.not43.not, label %42, label %45

42:                                               ; preds = %40
  %43 = trunc i32 %39 to i16
  store i16 23318, ptr %37, align 4, !tbaa !31
  store i16 %43, ptr %36, align 8, !tbaa !31
  store i16 724, ptr %38, align 2, !tbaa !31
  %44 = tail call i32 @lj_opt_fold(ptr noundef nonnull %0) #8
  br label %45

45:                                               ; preds = %42, %40
  %.3 = phi i32 [ %44, %42 ], [ %39, %40 ]
  %46 = tail call i32 @lj_ir_kint64(ptr noundef nonnull %0, i64 noundef 72340172838076673) #8
  br label %.thread.sink.split

47:                                               ; preds = %34
  %48 = icmp eq i32 %32, 18
  %49 = select i1 %48, i32 257, i32 16843009
  %50 = tail call i32 @lj_ir_kint(ptr noundef nonnull %0, i32 noundef %49) #8
  br label %.thread.sink.split

.thread.sink.split:                               ; preds = %47, %45
  %.sink60 = phi i32 [ %46, %45 ], [ %50, %47 ]
  %.sink59 = phi i16 [ 11030, %45 ], [ 11027, %47 ]
  %.sink58.in = phi i32 [ %.3, %45 ], [ %39, %47 ]
  %.sink58 = trunc i32 %.sink58.in to i16
  %51 = trunc i32 %.sink60 to i16
  store i16 %.sink59, ptr %37, align 4, !tbaa !31
  store i16 %.sink58, ptr %36, align 8, !tbaa !31
  store i16 %51, ptr %38, align 2, !tbaa !31
  %52 = tail call i32 @lj_opt_fold(ptr noundef nonnull %0) #8
  br label %.thread

.thread:                                          ; preds = %.thread.sink.split, %28, %34
  %.2 = phi i32 [ %39, %34 ], [ %3, %28 ], [ %52, %.thread.sink.split ]
  %53 = trunc i32 %1 to i16
  %54 = getelementptr inbounds nuw i8, ptr %0, i64 184
  %55 = getelementptr inbounds nuw i8, ptr %0, i64 188
  %56 = getelementptr inbounds nuw i8, ptr %0, i64 186
  %57 = trunc i32 %.2 to i16
  %wide.trip.count.i44 = zext i32 %.1.lcssa.i to i64
  br label %58

58:                                               ; preds = %58, %.thread
  %indvars.iv.i45 = phi i64 [ 0, %.thread ], [ %indvars.iv.next.i46, %58 ]
  %59 = getelementptr inbounds nuw %struct.CRecMemList, ptr %5, i64 %indvars.iv.i45
  %60 = load i32, ptr %59, align 16, !tbaa !116
  %61 = zext i32 %60 to i64
  %62 = tail call i32 @lj_ir_kint64(ptr noundef %0, i64 noundef %61) #8
  %63 = trunc i32 %62 to i16
  store i16 10505, ptr %55, align 4, !tbaa !31
  store i16 %53, ptr %54, align 8, !tbaa !31
  store i16 %63, ptr %56, align 2, !tbaa !31
  %64 = tail call i32 @lj_opt_fold(ptr noundef %0) #8
  %65 = getelementptr inbounds nuw i8, ptr %59, i64 4
  %66 = load i32, ptr %65, align 4, !tbaa !118
  %67 = trunc i32 %66 to i16
  %68 = or i16 %67, 19968
  %69 = trunc i32 %64 to i16
  store i16 %68, ptr %55, align 4, !tbaa !31
  store i16 %69, ptr %54, align 8, !tbaa !31
  store i16 %57, ptr %56, align 2, !tbaa !31
  %70 = tail call i32 @lj_opt_fold(ptr noundef %0) #8
  %indvars.iv.next.i46 = add nuw nsw i64 %indvars.iv.i45, 1
  %exitcond.not.i = icmp eq i64 %indvars.iv.next.i46, %wide.trip.count.i44
  br i1 %exitcond.not.i, label %crec_fill_emit.exit.thread52, label %58, !llvm.loop !127

crec_fill_emit.exit.thread52:                     ; preds = %58
  call void @llvm.lifetime.end.p0(i64 256, ptr nonnull %5) #8
  br label %73

crec_fill_emit.exit.thread:                       ; preds = %.lr.ph.i, %15, %crec_fill_unroll.exit
  call void @llvm.lifetime.end.p0(i64 256, ptr nonnull %5) #8
  br label %71

crec_fill_emit.exit:                              ; preds = %7
  call void @llvm.lifetime.end.p0(i64 256, ptr nonnull %5) #8
  br label %78

71:                                               ; preds = %crec_fill_emit.exit.thread, %4
  %72 = tail call i32 (ptr, i32, ...) @lj_ir_call(ptr noundef %0, i32 noundef 105, i32 noundef %1, i32 noundef %3, i32 noundef %2) #8
  br label %73

73:                                               ; preds = %crec_fill_emit.exit.thread52, %71
  %74 = getelementptr inbounds nuw i8, ptr %0, i64 184
  %75 = getelementptr inbounds nuw i8, ptr %0, i64 188
  store i16 23040, ptr %75, align 4, !tbaa !31
  store i16 0, ptr %74, align 8, !tbaa !31
  %76 = getelementptr inbounds nuw i8, ptr %0, i64 186
  store i16 0, ptr %76, align 2, !tbaa !31
  %77 = tail call i32 @lj_opt_fold(ptr noundef %0) #8
  br label %78

78:                                               ; preds = %crec_fill_emit.exit, %73
  ret void
}